target datalayout = "e-m:e-p270:32:32-p271:32:32-p272:64:64-i64:64-i128:128-f80:128-n8:16:32:64-S128"
target triple = "x86_64-pc-linux-gnu"

%"class.pxrInternal_v0_24__pxrReserved__::GfMatrix4f" = type { %"class.pxrInternal_v0_24__pxrReserved__::GfMatrixData" }
%"class.pxrInternal_v0_24__pxrReserved__::GfMatrixData" = type { [16 x float] }

; Function Attrs: mustprogress uwtable
define internal void @_ZN32pxrInternal_v0_24__pxrReserved__12_GLOBAL__N_117_InvertTransformsINS_10GfMatrix4fEEEvRKNS_7VtArrayIT_EEPS5_(ptr noundef nonnull align 8 dereferenceable(40) %0, ptr noundef %1) #0 {
  %3 = alloca ptr, align 8
  %4 = alloca ptr, align 8
  %5 = alloca ptr, align 8
  %6 = alloca i64, align 8
  %7 = alloca %"class.pxrInternal_v0_24__pxrReserved__::GfMatrix4f", align 4
  store ptr %0, ptr %3, align 8
  store ptr %1, ptr %4, align 8
  %8 = load ptr, ptr %4, align 8
  %9 = load ptr, ptr %3, align 8
  %10 = call noundef i64 @_ZNK32pxrInternal_v0_24__pxrReserved__7VtArrayINS_10GfMatrix4fEE4sizeEv(ptr noundef nonnull align 8 dereferenceable(40) %9)
  call void @_ZN32pxrInternal_v0_24__pxrReserved__7VtArrayINS_10GfMatrix4fEE6resizeEm(ptr noundef nonnull align 8 dereferenceable(40) %8, i64 noundef %10)
  %11 = load ptr, ptr %4, align 8
  %12 = call noundef ptr @_ZN32pxrInternal_v0_24__pxrReserved__7VtArrayINS_10GfMatrix4fEE4dataEv(ptr noundef nonnull align 8 dereferenceable(40) %11)
  store ptr %12, ptr %5, align 8
  store i64 0, ptr %6, align 8
  br label %13

13:                                               ; preds = %25, %2
  %14 = load i64, ptr %6, align 8
  %15 = load ptr, ptr %3, align 8
  %16 = call noundef i64 @_ZNK32pxrInternal_v0_24__pxrReserved__7VtArrayINS_10GfMatrix4fEE4sizeEv(ptr noundef nonnull align 8 dereferenceable(40) %15)
  %17 = icmp ult i64 %14, %16
  br i1 %17, label %18, label %28

18:                                               ; preds = %13
  %19 = load ptr, ptr %3, align 8
  %20 = load i64, ptr %6, align 8
  %21 = call noundef nonnull align 4 dereferenceable(64) ptr @_ZNK32pxrInternal_v0_24__pxrReserved__7VtArrayINS_10GfMatrix4fEEixEm(ptr noundef nonnull align 8 dereferenceable(40) %19, i64 noundef %20)
  call void @_ZNK32pxrInternal_v0_24__pxrReserved__10GfMatrix4f10GetInverseEPdd(ptr dead_on_unwind writable sret(%"class.pxrInternal_v0_24__pxrReserved__::GfMatrix4f") align 4 %7, ptr noundef nonnull align 4 dereferenceable(64) %21, ptr noundef null, double noundef 0.000000e+00)
  %22 = load ptr, ptr %5, align 8
  %23 = load i64, ptr %6, align 8
  %24 = getelementptr inbounds %"class.pxrInternal_v0_24__pxrReserved__::GfMatrix4f", ptr %22, i64 %23
  call void @llvm.memcpy.p0.p0.i64(ptr align 4 %24, ptr align 4 %7, i64 64, i1 false)
  br label %25

25:                                               ; preds = %18
  %26 = load i64, ptr %6, align 8
  %27 = add i64 %26, 1
  store i64 %27, ptr %6, align 8
  br label %13, !llvm.loop !9

28:                                               ; preds = %13
  ret void
}